target datalayout = "e-m:e-p270:32:32-p271:32:32-p272:64:64-i64:64-i128:128-f80:128-n8:16:32:64-S128"
target triple = "x86_64-pc-linux-gnu"

%struct.zrangespec = type { double, double, i32, i32 }
%struct.redisObject = type { i32, i32, ptr }

; Function Attrs: nounwind uwtable
define internal i32 @zslParseRange(ptr noundef %0, ptr noundef %1, ptr noundef %2) #0 {
  %4 = alloca i32, align 4
  %5 = alloca ptr, align 8
  %6 = alloca ptr, align 8
  %7 = alloca ptr, align 8
  %8 = alloca ptr, align 8
  %9 = alloca i32, align 4
  store ptr %0, ptr %5, align 8, !tbaa !78
  store ptr %1, ptr %6, align 8, !tbaa !78
  store ptr %2, ptr %7, align 8, !tbaa !45
  call void @llvm.lifetime.start.p0(i64 8, ptr %8) #12
  %10 = load ptr, ptr %7, align 8, !tbaa !45
  %11 = getelementptr inbounds nuw %struct.zrangespec, ptr %10, i32 0, i32 3
  store i32 0, ptr %11, align 4, !tbaa !49
  %12 = load ptr, ptr %7, align 8, !tbaa !45
  %13 = getelementptr inbounds nuw %struct.zrangespec, ptr %12, i32 0, i32 2
  store i32 0, ptr %13, align 8, !tbaa !46
  %14 = load ptr, ptr %5, align 8, !tbaa !78
  %15 = load i32, ptr %14, align 8
  %16 = lshr i32 %15, 4
  %17 = and i32 %16, 15
  %18 = icmp eq i32 %17, 1
  br i1 %18, label %19, label %27

19:                                               ; preds = %3
  %20 = load ptr, ptr %5, align 8, !tbaa !78
  %21 = getelementptr inbounds nuw %struct.redisObject, ptr %20, i32 0, i32 2
  %22 = load ptr, ptr %21, align 8, !tbaa !84
  %23 = ptrtoint ptr %22 to i64
  %24 = sitofp i64 %23 to double
  %25 = load ptr, ptr %7, align 8, !tbaa !45
  %26 = getelementptr inbounds nuw %struct.zrangespec, ptr %25, i32 0, i32 0
  store double %24, ptr %26, align 8, !tbaa !48
  br label %77

27:                                               ; preds = %3
  %28 = load ptr, ptr %5, align 8, !tbaa !78
  %29 = getelementptr inbounds nuw %struct.redisObject, ptr %28, i32 0, i32 2
  %30 = load ptr, ptr %29, align 8, !tbaa !84
  %31 = getelementptr inbounds i8, ptr %30, i64 0
  %32 = load i8, ptr %31, align 1, !tbaa !86
  %33 = sext i8 %32 to i32
  %34 = icmp eq i32 %33, 40
  br i1 %34, label %35, label %57

35:                                               ; preds = %27
  %36 = load ptr, ptr %5, align 8, !tbaa !78
  %37 = getelementptr inbounds nuw %struct.redisObject, ptr %36, i32 0, i32 2
  %38 = load ptr, ptr %37, align 8, !tbaa !84
  %39 = getelementptr inbounds i8, ptr %38, i64 1
  %40 = call double @fast_float_strtod(ptr noundef %39, ptr noundef %8)
  %41 = load ptr, ptr %7, align 8, !tbaa !45
  %42 = getelementptr inbounds nuw %struct.zrangespec, ptr %41, i32 0, i32 0
  store double %40, ptr %42, align 8, !tbaa !48
  %43 = load ptr, ptr %8, align 8, !tbaa !11
  %44 = getelementptr inbounds i8, ptr %43, i64 0
  %45 = load i8, ptr %44, align 1, !tbaa !86
  %46 = sext i8 %45 to i32
  %47 = icmp ne i32 %46, 0
  br i1 %47, label %53, label %48

48:                                               ; preds = %35
  %49 = load ptr, ptr %7, align 8, !tbaa !45
  %50 = getelementptr inbounds nuw %struct.zrangespec, ptr %49, i32 0, i32 0
  %51 = load double, ptr %50, align 8, !tbaa !48
  %52 = call i1 @llvm.is.fpclass.f64(double %51, i32 3)
  br i1 %52, label %53, label %54

53:                                               ; preds = %48, %35
  store i32 -1, ptr %4, align 4
  store i32 1, ptr %9, align 4
  br label %142

54:                                               ; preds = %48
  %55 = load ptr, ptr %7, align 8, !tbaa !45
  %56 = getelementptr inbounds nuw %struct.zrangespec, ptr %55, i32 0, i32 2
  store i32 1, ptr %56, align 8, !tbaa !46
  br label %76

57:                                               ; preds = %27
  %58 = load ptr, ptr %5, align 8, !tbaa !78
  %59 = getelementptr inbounds nuw %struct.redisObject, ptr %58, i32 0, i32 2
  %60 = load ptr, ptr %59, align 8, !tbaa !84
  %61 = call double @fast_float_strtod(ptr noundef %60, ptr noundef %8)
  %62 = load ptr, ptr %7, align 8, !tbaa !45
  %63 = getelementptr inbounds nuw %struct.zrangespec, ptr %62, i32 0, i32 0
  store double %61, ptr %63, align 8, !tbaa !48
  %64 = load ptr, ptr %8, align 8, !tbaa !11
  %65 = getelementptr inbounds i8, ptr %64, i64 0
  %66 = load i8, ptr %65, align 1, !tbaa !86
  %67 = sext i8 %66 to i32
  %68 = icmp ne i32 %67, 0
  br i1 %68, label %74, label %69

69:                                               ; preds = %57
  %70 = load ptr, ptr %7, align 8, !tbaa !45
  %71 = getelementptr inbounds nuw %struct.zrangespec, ptr %70, i32 0, i32 0
  %72 = load double, ptr %71, align 8, !tbaa !48
  %73 = call i1 @llvm.is.fpclass.f64(double %72, i32 3)
  br i1 %73, label %74, label %75

74:                                               ; preds = %69, %57
  store i32 -1, ptr %4, align 4
  store i32 1, ptr %9, align 4
  br label %142

75:                                               ; preds = %69
  br label %76

76:                                               ; preds = %75, %54
  br label %77

77:                                               ; preds = %76, %19
  %78 = load ptr, ptr %6, align 8, !tbaa !78
  %79 = load i32, ptr %78, align 8
  %80 = lshr i32 %79, 4
  %81 = and i32 %80, 15
  %82 = icmp eq i32 %81, 1
  br i1 %82, label %83, label %91

83:                                               ; preds = %77
  %84 = load ptr, ptr %6, align 8, !tbaa !78
  %85 = getelementptr inbounds nuw %struct.redisObject, ptr %84, i32 0, i32 2
  %86 = load ptr, ptr %85, align 8, !tbaa !84
  %87 = ptrtoint ptr %86 to i64
  %88 = sitofp i64 %87 to double
  %89 = load ptr, ptr %7, align 8, !tbaa !45
  %90 = getelementptr inbounds nuw %struct.zrangespec, ptr %89, i32 0, i32 1
  store double %88, ptr %90, align 8, !tbaa !50
  br label %141

91:                                               ; preds = %77
  %92 = load ptr, ptr %6, align 8, !tbaa !78
  %93 = getelementptr inbounds nuw %struct.redisObject, ptr %92, i32 0, i32 2
  %94 = load ptr, ptr %93, align 8, !tbaa !84
  %95 = getelementptr inbounds i8, ptr %94, i64 0
  %96 = load i8, ptr %95, align 1, !tbaa !86
  %97 = sext i8 %96 to i32
  %98 = icmp eq i32 %97, 40
  br i1 %98, label %99, label %121

99:                                               ; preds = %91
  %100 = load ptr, ptr %6, align 8, !tbaa !78
  %101 = getelementptr inbounds nuw %struct.redisObject, ptr %100, i32 0, i32 2
  %102 = load ptr, ptr %101, align 8, !tbaa !84
  %103 = getelementptr inbounds i8, ptr %102, i64 1
  %104 = call double @fast_float_strtod(ptr noundef %103, ptr noundef %8)
  %105 = load ptr, ptr %7, align 8, !tbaa !45
  %106 = getelementptr inbounds nuw %struct.zrangespec, ptr %105, i32 0, i32 1
  store double %104, ptr %106, align 8, !tbaa !50
  %107 = load ptr, ptr %8, align 8, !tbaa !11
  %108 = getelementptr inbounds i8, ptr %107, i64 0
  %109 = load i8, ptr %108, align 1, !tbaa !86
  %110 = sext i8 %109 to i32
  %111 = icmp ne i32 %110, 0
  br i1 %111, label %117, label %112

112:                                              ; preds = %99
  %113 = load ptr, ptr %7, align 8, !tbaa !45
  %114 = getelementptr inbounds nuw %struct.zrangespec, ptr %113, i32 0, i32 1
  %115 = load double, ptr %114, align 8, !tbaa !50
  %116 = call i1 @llvm.is.fpclass.f64(double %115, i32 3)
  br i1 %116, label %117, label %118

117:                                              ; preds = %112, %99
  store i32 -1, ptr %4, align 4
  store i32 1, ptr %9, align 4
  br label %142

118:                                              ; preds = %112
  %119 = load ptr, ptr %7, align 8, !tbaa !45
  %120 = getelementptr inbounds nuw %struct.zrangespec, ptr %119, i32 0, i32 3
  store i32 1, ptr %120, align 4, !tbaa !49
  br label %140

121:                                              ; preds = %91
  %122 = load ptr, ptr %6, align 8, !tbaa !78
  %123 = getelementptr inbounds nuw %struct.redisObject, ptr %122, i32 0, i32 2
  %124 = load ptr, ptr %123, align 8, !tbaa !84
  %125 = call double @fast_float_strtod(ptr noundef %124, ptr noundef %8)
  %126 = load ptr, ptr %7, align 8, !tbaa !45
  %127 = getelementptr inbounds nuw %struct.zrangespec, ptr %126, i32 0, i32 1
  store double %125, ptr %127, align 8, !tbaa !50
  %128 = load ptr, ptr %8, align 8, !tbaa !11
  %129 = getelementptr inbounds i8, ptr %128, i64 0
  %130 = load i8, ptr %129, align 1, !tbaa !86
  %131 = sext i8 %130 to i32
  %132 = icmp ne i32 %131, 0
  br i1 %132, label %138, label %133

133:                                              ; preds = %121
  %134 = load ptr, ptr %7, align 8, !tbaa !45
  %135 = getelementptr inbounds nuw %struct.zrangespec, ptr %134, i32 0, i32 1
  %136 = load double, ptr %135, align 8, !tbaa !50
  %137 = call i1 @llvm.is.fpclass.f64(double %136, i32 3)
  br i1 %137, label %138, label %139

138:                                              ; preds = %133, %121
  store i32 -1, ptr %4, align 4
  store i32 1, ptr %9, align 4
  br label %142

139:                                              ; preds = %133
  br label %140

140:                                              ; preds = %139, %118
  br label %141

141:                                              ; preds = %140, %83
  store i32 0, ptr %4, align 4
  store i32 1, ptr %9, align 4
  br label %142

142:                                              ; preds = %141, %138, %117, %74, %53
  call void @llvm.lifetime.end.p0(i64 8, ptr %8) #12
  %143 = load i32, ptr %4, align 4
  ret i32 %143
}