; Function Attrs: nounwind uwtable
define internal fastcc range(i32 -1, 1) i32 @zslParseRange(ptr noundef readonly captures(none) %0, ptr noundef readonly captures(none) %1, ptr noundef nonnull writeonly captures(none) initializes((0, 8), (16, 24)) %2) unnamed_addr #0 {
  %4 = alloca ptr, align 8
  call void @llvm.lifetime.start.p0(i64 8, ptr nonnull %4) #18
  %5 = getelementptr inbounds nuw i8, ptr %2, i64 20
  store i32 0, ptr %5, align 4, !tbaa !44
  %6 = getelementptr inbounds nuw i8, ptr %2, i64 16
  store i32 0, ptr %6, align 8, !tbaa !41
  %7 = load i32, ptr %0, align 8
  %8 = and i32 %7, 240
  %9 = icmp eq i32 %8, 16
  %10 = getelementptr inbounds nuw i8, ptr %0, i64 8
  %11 = load ptr, ptr %10, align 8, !tbaa !75
  br i1 %9, label %12, label %15

12:                                               ; preds = %3
  %13 = ptrtoint ptr %11 to i64
  %14 = sitofp i64 %13 to double
  store double %14, ptr %2, align 8, !tbaa !43
  br label %30

15:                                               ; preds = %3
  %16 = load i8, ptr %11, align 1, !tbaa !77
  %17 = icmp eq i8 %16, 40
  br i1 %17, label %18, label %25

18:                                               ; preds = %15
  %19 = getelementptr inbounds nuw i8, ptr %11, i64 1
  %20 = call double @fast_float_strtod(ptr noundef nonnull %19, ptr noundef nonnull %4) #18
  store double %20, ptr %2, align 8, !tbaa !43
  %21 = load ptr, ptr %4, align 8, !tbaa !9
  %22 = load i8, ptr %21, align 1, !tbaa !77
  %.not24 = icmp ne i8 %22, 0
  %23 = fcmp uno double %20, 0.000000e+00
  %or.cond = select i1 %.not24, i1 true, i1 %23
  br i1 %or.cond, label %58, label %24

24:                                               ; preds = %18
  store i32 1, ptr %6, align 8, !tbaa !41
  br label %30

25:                                               ; preds = %15
  %26 = call double @fast_float_strtod(ptr noundef nonnull %11, ptr noundef nonnull %4) #18
  store double %26, ptr %2, align 8, !tbaa !43
  %27 = load ptr, ptr %4, align 8, !tbaa !9
  %28 = load i8, ptr %27, align 1, !tbaa !77
  %.not = icmp ne i8 %28, 0
  %29 = fcmp uno double %26, 0.000000e+00
  %or.cond27 = select i1 %.not, i1 true, i1 %29
  br i1 %or.cond27, label %58, label %30

30:                                               ; preds = %25, %24, %12
  %31 = load i32, ptr %1, align 8
  %32 = and i32 %31, 240
  %33 = icmp eq i32 %32, 16
  %34 = getelementptr inbounds nuw i8, ptr %1, i64 8
  %35 = load ptr, ptr %34, align 8, !tbaa !75
  br i1 %33, label %36, label %40

36:                                               ; preds = %30
  %37 = ptrtoint ptr %35 to i64
  %38 = sitofp i64 %37 to double
  %39 = getelementptr inbounds nuw i8, ptr %2, i64 8
  store double %38, ptr %39, align 8, !tbaa !45
  br label %57

40:                                               ; preds = %30
  %41 = load i8, ptr %35, align 1, !tbaa !77
  %42 = icmp eq i8 %41, 40
  br i1 %42, label %43, label %51

43:                                               ; preds = %40
  %44 = getelementptr inbounds nuw i8, ptr %35, i64 1
  %45 = call double @fast_float_strtod(ptr noundef nonnull %44, ptr noundef nonnull %4) #18
  %46 = getelementptr inbounds nuw i8, ptr %2, i64 8
  store double %45, ptr %46, align 8, !tbaa !45
  %47 = load ptr, ptr %4, align 8, !tbaa !9
  %48 = load i8, ptr %47, align 1, !tbaa !77
  %.not26 = icmp ne i8 %48, 0
  %49 = fcmp uno double %45, 0.000000e+00
  %or.cond28 = select i1 %.not26, i1 true, i1 %49
  br i1 %or.cond28, label %58, label %50

50:                                               ; preds = %43
  store i32 1, ptr %5, align 4, !tbaa !44
  br label %57

51:                                               ; preds = %40
  %52 = call double @fast_float_strtod(ptr noundef nonnull %35, ptr noundef nonnull %4) #18
  %53 = getelementptr inbounds nuw i8, ptr %2, i64 8
  store double %52, ptr %53, align 8, !tbaa !45
  %54 = load ptr, ptr %4, align 8, !tbaa !9
  %55 = load i8, ptr %54, align 1, !tbaa !77
  %.not25 = icmp ne i8 %55, 0
  %56 = fcmp uno double %52, 0.000000e+00
  %or.cond29 = select i1 %.not25, i1 true, i1 %56
  br i1 %or.cond29, label %58, label %57

57:                                               ; preds = %51, %50, %36
  br label %58

58:                                               ; preds = %51, %43, %25, %18, %57
  %.0 = phi i32 [ 0, %57 ], [ -1, %18 ], [ -1, %25 ], [ -1, %43 ], [ -1, %51 ]
  call void @llvm.lifetime.end.p0(i64 8, ptr nonnull %4) #18
  ret i32 %.0
}